target datalayout = "e-m:e-p270:32:32-p271:32:32-p272:64:64-i64:64-i128:128-f80:128-n8:16:32:64-S128"
target triple = "x86_64-pc-linux-gnu"

; Function Attrs: inlinehint nounwind uwtable
define internal i32 @rnd_avg32(i32 noundef %0, i32 noundef %1) #7 {
  %3 = alloca i32, align 4
  %4 = alloca i32, align 4
  store i32 %0, ptr %3, align 4, !tbaa !15
  store i32 %1, ptr %4, align 4, !tbaa !15
  %5 = load i32, ptr %3, align 4, !tbaa !15
  %6 = load i32, ptr %4, align 4, !tbaa !15
  %7 = or i32 %5, %6
  %8 = zext i32 %7 to i64
  %9 = load i32, ptr %3, align 4, !tbaa !15
  %10 = load i32, ptr %4, align 4, !tbaa !15
  %11 = xor i32 %9, %10
  %12 = zext i32 %11 to i64
  %13 = and i64 %12, -16843010
  %14 = lshr i64 %13, 1
  %15 = sub i64 %8, %14
  %16 = trunc i64 %15 to i32
  ret i32 %16
}

; Function Attrs: alwaysinline nounwind uwtable
define internal void @avg_c(ptr noalias noundef %0, i64 noundef %1, ptr noalias noundef %2, i64 noundef %3, i32 noundef %4, i32 noundef %5) #6 {
  %7 = alloca ptr, align 8
  %8 = alloca i64, align 8
  %9 = alloca ptr, align 8
  %10 = alloca i64, align 8
  %11 = alloca i32, align 4
  %12 = alloca i32, align 4
  %13 = alloca ptr, align 8
  %14 = alloca ptr, align 8
  %15 = alloca i32, align 4
  store ptr %0, ptr %7, align 8, !tbaa !10
  store i64 %1, ptr %8, align 8, !tbaa !12
  store ptr %2, ptr %9, align 8, !tbaa !10
  store i64 %3, ptr %10, align 8, !tbaa !12
  store i32 %4, ptr %11, align 4, !tbaa !15
  store i32 %5, ptr %12, align 4, !tbaa !15
  call void @llvm.lifetime.start.p0(i64 8, ptr %13) #10
  %16 = load ptr, ptr %7, align 8, !tbaa !10
  store ptr %16, ptr %13, align 8, !tbaa !10
  call void @llvm.lifetime.start.p0(i64 8, ptr %14) #10
  %17 = load ptr, ptr %9, align 8, !tbaa !10
  store ptr %17, ptr %14, align 8, !tbaa !10
  %18 = load i64, ptr %8, align 8, !tbaa !12
  %19 = udiv i64 %18, 1
  store i64 %19, ptr %8, align 8, !tbaa !12
  %20 = load i64, ptr %10, align 8, !tbaa !12
  %21 = udiv i64 %20, 1
  store i64 %21, ptr %10, align 8, !tbaa !12
  br label %22

22:                                               ; preds = %53, %6
  call void @llvm.lifetime.start.p0(i64 4, ptr %15) #10
  store i32 0, ptr %15, align 4, !tbaa !15
  br label %23

23:                                               ; preds = %43, %22
  %24 = load i32, ptr %15, align 4, !tbaa !15
  %25 = load i32, ptr %11, align 4, !tbaa !15
  %26 = icmp slt i32 %24, %25
  br i1 %26, label %27, label %46

27:                                               ; preds = %23
  %28 = load ptr, ptr %13, align 8, !tbaa !10
  %29 = load i32, ptr %15, align 4, !tbaa !15
  %30 = sext i32 %29 to i64
  %31 = getelementptr inbounds i8, ptr %28, i64 %30
  %32 = load i32, ptr %31, align 4, !tbaa !14
  %33 = load ptr, ptr %14, align 8, !tbaa !10
  %34 = load i32, ptr %15, align 4, !tbaa !15
  %35 = sext i32 %34 to i64
  %36 = getelementptr inbounds i8, ptr %33, i64 %35
  %37 = load i32, ptr %36, align 1, !tbaa !14
  %38 = call i32 @rnd_avg32(i32 noundef %32, i32 noundef %37)
  %39 = load ptr, ptr %13, align 8, !tbaa !10
  %40 = load i32, ptr %15, align 4, !tbaa !15
  %41 = sext i32 %40 to i64
  %42 = getelementptr inbounds i8, ptr %39, i64 %41
  store i32 %38, ptr %42, align 4, !tbaa !14
  br label %43

43:                                               ; preds = %27
  %44 = load i32, ptr %15, align 4, !tbaa !15
  %45 = add nsw i32 %44, 4
  store i32 %45, ptr %15, align 4, !tbaa !15
  br label %23, !llvm.loop !144

46:                                               ; preds = %23
  %47 = load i64, ptr %8, align 8, !tbaa !12
  %48 = load ptr, ptr %13, align 8, !tbaa !10
  %49 = getelementptr inbounds i8, ptr %48, i64 %47
  store ptr %49, ptr %13, align 8, !tbaa !10
  %50 = load i64, ptr %10, align 8, !tbaa !12
  %51 = load ptr, ptr %14, align 8, !tbaa !10
  %52 = getelementptr inbounds i8, ptr %51, i64 %50
  store ptr %52, ptr %14, align 8, !tbaa !10
  call void @llvm.lifetime.end.p0(i64 4, ptr %15) #10
  br label %53

53:                                               ; preds = %46
  %54 = load i32, ptr %12, align 4, !tbaa !15
  %55 = add nsw i32 %54, -1
  store i32 %55, ptr %12, align 4, !tbaa !15
  %56 = icmp ne i32 %55, 0
  br i1 %56, label %22, label %57, !llvm.loop !145

57:                                               ; preds = %53
  call void @llvm.lifetime.end.p0(i64 8, ptr %14) #10
  call void @llvm.lifetime.end.p0(i64 8, ptr %13) #10
  ret void
}

; Function Attrs: nounwind uwtable
define internal void @avg8_c(ptr noundef %0, i64 noundef %1, ptr noundef %2, i64 noundef %3, i32 noundef %4, i32 noundef %5, i32 noundef %6) #1 {
  %8 = alloca ptr, align 8
  %9 = alloca i64, align 8
  %10 = alloca ptr, align 8
  %11 = alloca i64, align 8
  %12 = alloca i32, align 4
  %13 = alloca i32, align 4
  %14 = alloca i32, align 4
  store ptr %0, ptr %8, align 8, !tbaa !10
  store i64 %1, ptr %9, align 8, !tbaa !12
  store ptr %2, ptr %10, align 8, !tbaa !10
  store i64 %3, ptr %11, align 8, !tbaa !12
  store i32 %4, ptr %12, align 4, !tbaa !15
  store i32 %5, ptr %13, align 4, !tbaa !15
  store i32 %6, ptr %14, align 4, !tbaa !15
  %15 = load ptr, ptr %8, align 8, !tbaa !10
  %16 = load i64, ptr %9, align 8, !tbaa !12
  %17 = load ptr, ptr %10, align 8, !tbaa !10
  %18 = load i64, ptr %11, align 8, !tbaa !12
  %19 = load i32, ptr %12, align 4, !tbaa !15
  call void @avg_c(ptr noundef %15, i64 noundef %16, ptr noundef %17, i64 noundef %18, i32 noundef 8, i32 noundef %19)
  ret void
}