; Function Attrs: nofree norecurse nosync nounwind memory(argmem: readwrite, inaccessiblemem: readwrite) uwtable
define internal void @avg8_c(ptr noundef captures(none) %0, i64 noundef %1, ptr noundef readonly captures(none) %2, i64 noundef %3, i32 noundef %4, i32 %5, i32 %6) #8 {
  tail call void @llvm.experimental.noalias.scope.decl(metadata !167)
  tail call void @llvm.experimental.noalias.scope.decl(metadata !170)
  br label %.critedge

.critedge:                                        ; preds = %.critedge, %7
  %.019.i = phi i32 [ %4, %7 ], [ %26, %.critedge ]
  %.018.i = phi ptr [ %0, %7 ], [ %24, %.critedge ]
  %.017.i = phi ptr [ %2, %7 ], [ %25, %.critedge ]
  %8 = load i32, ptr %.018.i, align 4, !tbaa !8, !alias.scope !167, !noalias !170
  %9 = load i32, ptr %.017.i, align 1, !tbaa !8, !alias.scope !170, !noalias !167
  %10 = or i32 %9, %8
  %11 = xor i32 %9, %8
  %12 = lshr i32 %11, 1
  %13 = and i32 %12, 2139062143
  %14 = sub i32 %10, %13
  store i32 %14, ptr %.018.i, align 4, !tbaa !8, !alias.scope !167, !noalias !170
  %15 = getelementptr inbounds nuw i8, ptr %.018.i, i64 4
  %16 = load i32, ptr %15, align 4, !tbaa !8, !alias.scope !167, !noalias !170
  %17 = getelementptr inbounds nuw i8, ptr %.017.i, i64 4
  %18 = load i32, ptr %17, align 1, !tbaa !8, !alias.scope !170, !noalias !167
  %19 = or i32 %18, %16
  %20 = xor i32 %18, %16
  %21 = lshr i32 %20, 1
  %22 = and i32 %21, 2139062143
  %23 = sub i32 %19, %22
  store i32 %23, ptr %15, align 4, !tbaa !8, !alias.scope !167, !noalias !170
  %24 = getelementptr inbounds i8, ptr %.018.i, i64 %1
  %25 = getelementptr inbounds i8, ptr %.017.i, i64 %3
  %26 = add nsw i32 %.019.i, -1
  %.not.i = icmp eq i32 %26, 0
  br i1 %.not.i, label %avg_c.exit, label %.critedge, !llvm.loop !144

avg_c.exit:                                       ; preds = %.critedge
  ret void
}